; Function Attrs: nounwind uwtable
define hidden void @SDL_BindGPUGraphicsPipeline_REAL(ptr noundef readonly captures(address_is_null) %0, ptr noundef %1) local_unnamed_addr #0 {
  %3 = icmp eq ptr %0, null
  br i1 %3, label %4, label %6

4:                                                ; preds = %2
  %5 = tail call zeroext i1 (ptr, ...) @SDL_SetError_REAL(ptr noundef nonnull @.str.4, ptr noundef nonnull @.str.225) #7
  br label %17

6:                                                ; preds = %2
  %7 = icmp eq ptr %1, null
  br i1 %7, label %8, label %10

8:                                                ; preds = %6
  %9 = tail call zeroext i1 (ptr, ...) @SDL_SetError_REAL(ptr noundef nonnull @.str.4, ptr noundef nonnull @.str.226) #7
  br label %17

10:                                               ; preds = %6
  %11 = load ptr, ptr %0, align 8
  %12 = load ptr, ptr %11, align 8
  %13 = getelementptr inbounds nuw i8, ptr %12, i64 176
  %14 = load ptr, ptr %13, align 8
  tail call void %14(ptr noundef nonnull %11, ptr noundef nonnull %1) #7
  %15 = load ptr, ptr %0, align 8
  %16 = getelementptr inbounds nuw i8, ptr %15, i64 72
  store i8 1, ptr %16, align 8
  br label %17

17:                                               ; preds = %10, %8, %4
  ret void
}